; Function Attrs: mustprogress uwtable
define hidden void @_ZN13char_rewriterC2ER11ast_manager(ptr nocapture noundef nonnull writeonly align 8 dereferenceable(16) %this, ptr noundef nonnull align 8 dereferenceable(976) %m) unnamed_addr #3 align 2 {
entry:
  %ref.tmp.i = alloca %class.symbol, align 8
  store ptr %m, ptr %this, align 8
  call void @llvm.lifetime.start.p0(i64 8, ptr nonnull %ref.tmp.i)
  call void @_ZN6symbolC1EPKc(ptr noundef nonnull align 8 dereferenceable(8) %ref.tmp.i, ptr noundef nonnull @.str)
  %m_family_manager.i.i = getelementptr inbounds i8, ptr %m, i64 560
  %call.i.i = call noundef i32 @_ZN14family_manager12mk_family_idERK6symbol(ptr noundef nonnull align 8 dereferenceable(56) %m_family_manager.i.i, ptr noundef nonnull align 8 dereferenceable(8) %ref.tmp.i)
  call void @llvm.lifetime.end.p0(i64 8, ptr nonnull %ref.tmp.i)
  %call3 = call noundef ptr @_ZNK11ast_manager10get_pluginEi(ptr noundef nonnull align 8 dereferenceable(976) %m, i32 noundef %call.i.i)
  %m_char = getelementptr inbounds i8, ptr %this, i64 8
  store ptr %call3, ptr %m_char, align 8
  ret void
}